target datalayout = "e-m:e-p270:32:32-p271:32:32-p272:64:64-i64:64-i128:128-f80:128-n8:16:32:64-S128"
target triple = "x86_64-pc-linux-gnu"

%struct.writeoutvar = type { ptr, i32, i32, ptr }
%struct.per_transfer = type { ptr, ptr, ptr, ptr, ptr, i64, i64, i64, i64, %struct.timeval, %struct.timeval, ptr, i32, ptr, i32, %struct.ProgressData, %struct.OutStruct, %struct.OutStruct, %struct.OutStruct, %struct.HdrCbData, i64, i64, i64, i64, i64, i64, i64, i64, i8, i8, ptr, ptr, i8, i8, i8, i8, i8, i8 }
%struct.timeval = type { i64, i64 }
%struct.ProgressData = type { i32, i64, %struct.timeval, i32, ptr, i64, i32, i32, i32 }
%struct.OutStruct = type { ptr, i8, i8, i8, i8, ptr, i64, i64 }
%struct.HdrCbData = type { ptr, ptr, ptr, ptr, ptr, ptr, i8 }

@.str.82 = private unnamed_addr constant [6 x i8] c"\22%s\22:\00", align 1
@.str.83 = private unnamed_addr constant [10 x i8] c"\22%s\22:null\00", align 1
@.str.93 = private unnamed_addr constant [10 x i8] c"%lu.%06lu\00", align 1

; Function Attrs: nounwind uwtable
define internal i32 @writeTime(ptr noundef %0, ptr noundef %1, ptr noundef %2, i32 noundef %3, i1 noundef zeroext %4) #0 {
  %6 = alloca ptr, align 8
  %7 = alloca ptr, align 8
  %8 = alloca ptr, align 8
  %9 = alloca i32, align 4
  %10 = alloca i8, align 1
  %11 = alloca i8, align 1
  %12 = alloca i64, align 8
  %13 = alloca i64, align 8
  store ptr %0, ptr %6, align 8, !tbaa !13
  store ptr %1, ptr %7, align 8, !tbaa !34
  store ptr %2, ptr %8, align 8, !tbaa !9
  store i32 %3, ptr %9, align 4, !tbaa !11
  %14 = zext i1 %4 to i8
  store i8 %14, ptr %10, align 1, !tbaa !30
  call void @llvm.lifetime.start.p0(i64 1, ptr %11) #7
  store i8 0, ptr %11, align 1, !tbaa !30
  call void @llvm.lifetime.start.p0(i64 8, ptr %12) #7
  store i64 0, ptr %12, align 8, !tbaa !38
  br label %15

15:                                               ; preds = %5
  br label %16

16:                                               ; preds = %15
  br label %17

17:                                               ; preds = %16
  %18 = load ptr, ptr %7, align 8, !tbaa !34
  %19 = getelementptr inbounds nuw %struct.writeoutvar, ptr %18, i32 0, i32 2
  %20 = load i32, ptr %19, align 4, !tbaa !57
  %21 = icmp ne i32 %20, 0
  br i1 %21, label %22, label %33

22:                                               ; preds = %17
  %23 = load ptr, ptr %8, align 8, !tbaa !9
  %24 = getelementptr inbounds nuw %struct.per_transfer, ptr %23, i32 0, i32 4
  %25 = load ptr, ptr %24, align 8, !tbaa !43
  %26 = load ptr, ptr %7, align 8, !tbaa !34
  %27 = getelementptr inbounds nuw %struct.writeoutvar, ptr %26, i32 0, i32 2
  %28 = load i32, ptr %27, align 4, !tbaa !57
  %29 = call i32 (ptr, i32, ...) @curl_easy_getinfo(ptr noundef %25, i32 noundef %28, ptr noundef %12)
  %30 = icmp ne i32 %29, 0
  br i1 %30, label %32, label %31

31:                                               ; preds = %22
  store i8 1, ptr %11, align 1, !tbaa !30
  br label %32

32:                                               ; preds = %31, %22
  br label %37

33:                                               ; preds = %17
  br label %34

34:                                               ; preds = %33
  br label %35

35:                                               ; preds = %34
  br label %36

36:                                               ; preds = %35
  br label %37

37:                                               ; preds = %36, %32
  %38 = load i8, ptr %11, align 1, !tbaa !30, !range !32, !noundef !33
  %39 = trunc i8 %38 to i1
  br i1 %39, label %40, label %58

40:                                               ; preds = %37
  call void @llvm.lifetime.start.p0(i64 8, ptr %13) #7
  %41 = load i64, ptr %12, align 8, !tbaa !38
  %42 = sdiv i64 %41, 1000000
  store i64 %42, ptr %13, align 8, !tbaa !38
  %43 = load i64, ptr %12, align 8, !tbaa !38
  %44 = srem i64 %43, 1000000
  store i64 %44, ptr %12, align 8, !tbaa !38
  %45 = load i8, ptr %10, align 1, !tbaa !30, !range !32, !noundef !33
  %46 = trunc i8 %45 to i1
  br i1 %46, label %47, label %53

47:                                               ; preds = %40
  %48 = load ptr, ptr %6, align 8, !tbaa !13
  %49 = load ptr, ptr %7, align 8, !tbaa !34
  %50 = getelementptr inbounds nuw %struct.writeoutvar, ptr %49, i32 0, i32 0
  %51 = load ptr, ptr %50, align 8, !tbaa !39
  %52 = call i32 (ptr, ptr, ...) @curl_mfprintf(ptr noundef %48, ptr noundef @.str.82, ptr noundef %51)
  br label %53

53:                                               ; preds = %47, %40
  %54 = load ptr, ptr %6, align 8, !tbaa !13
  %55 = load i64, ptr %13, align 8, !tbaa !38
  %56 = load i64, ptr %12, align 8, !tbaa !38
  %57 = call i32 (ptr, ptr, ...) @curl_mfprintf(ptr noundef %54, ptr noundef @.str.93, i64 noundef %55, i64 noundef %56)
  call void @llvm.lifetime.end.p0(i64 8, ptr %13) #7
  br label %68

58:                                               ; preds = %37
  %59 = load i8, ptr %10, align 1, !tbaa !30, !range !32, !noundef !33
  %60 = trunc i8 %59 to i1
  br i1 %60, label %61, label %67

61:                                               ; preds = %58
  %62 = load ptr, ptr %6, align 8, !tbaa !13
  %63 = load ptr, ptr %7, align 8, !tbaa !34
  %64 = getelementptr inbounds nuw %struct.writeoutvar, ptr %63, i32 0, i32 0
  %65 = load ptr, ptr %64, align 8, !tbaa !39
  %66 = call i32 (ptr, ptr, ...) @curl_mfprintf(ptr noundef %62, ptr noundef @.str.83, ptr noundef %65)
  br label %67

67:                                               ; preds = %61, %58
  br label %68

68:                                               ; preds = %67, %53
  call void @llvm.lifetime.end.p0(i64 8, ptr %12) #7
  call void @llvm.lifetime.end.p0(i64 1, ptr %11) #7
  ret i32 1
}